target datalayout = "e-m:e-p270:32:32-p271:32:32-p272:64:64-i64:64-i128:128-f80:128-n8:16:32:64-S128"
target triple = "x86_64-pc-linux-gnu"

@.str.64 = private unnamed_addr constant [3 x i8] c"wb\00", align 1
@stderr = external global ptr, align 8
@.str.101 = private unnamed_addr constant [24 x i8] c"could not open file %s\0A\00", align 1

; Function Attrs: mustprogress uwtable
define void @_ZN6Gluco26Solver8toDimacsEPKcRKNS_3vecINS_3LitEEE(ptr noundef nonnull align 8 dereferenceable(1416) %0, ptr noundef %1, ptr noundef nonnull align 8 dereferenceable(16) %2) #1 align 2 {
  %4 = alloca ptr, align 8
  %5 = alloca ptr, align 8
  %6 = alloca ptr, align 8
  %7 = alloca ptr, align 8
  store ptr %0, ptr %4, align 8
  store ptr %1, ptr %5, align 8
  store ptr %2, ptr %6, align 8
  %8 = load ptr, ptr %4, align 8
  %9 = load ptr, ptr %5, align 8
  %10 = call noalias ptr @fopen(ptr noundef %9, ptr noundef @.str.64)
  store ptr %10, ptr %7, align 8
  %11 = load ptr, ptr %7, align 8
  %12 = icmp eq ptr %11, null
  br i1 %12, label %13, label %17

13:                                               ; preds = %3
  %14 = load ptr, ptr @stderr, align 8
  %15 = load ptr, ptr %5, align 8
  %16 = call i32 (ptr, ptr, ...) @fprintf(ptr noundef %14, ptr noundef @.str.101, ptr noundef %15) #3
  call void @exit(i32 noundef 1) #18
  unreachable

17:                                               ; preds = %3
  %18 = load ptr, ptr %7, align 8
  %19 = load ptr, ptr %6, align 8
  call void @_ZN6Gluco26Solver8toDimacsEP8_IO_FILERKNS_3vecINS_3LitEEE(ptr noundef nonnull align 8 dereferenceable(1416) %8, ptr noundef %18, ptr noundef nonnull align 8 dereferenceable(16) %19)
  %20 = load ptr, ptr %7, align 8
  %21 = call i32 @fclose(ptr noundef %20)
  ret void
}